target datalayout = "e-m:e-p270:32:32-p271:32:32-p272:64:64-i64:64-i128:128-f80:128-n8:16:32:64-S128"
target triple = "x86_64-pc-linux-gnu"

%"struct.std::_Vector_base.759" = type { %"struct.std::_Vector_base<std::shared_ptr<El>, std::allocator<std::shared_ptr<El>>>::_Vector_impl" }
%"struct.std::_Vector_base<std::shared_ptr<El>, std::allocator<std::shared_ptr<El>>>::_Vector_impl" = type { %"struct.std::_Vector_base<std::shared_ptr<El>, std::allocator<std::shared_ptr<El>>>::_Vector_impl_data" }
%"struct.std::_Vector_base<std::shared_ptr<El>, std::allocator<std::shared_ptr<El>>>::_Vector_impl_data" = type { ptr, ptr, ptr }
%"class.std::shared_ptr" = type { %"class.std::__shared_ptr" }
%"class.std::__shared_ptr" = type { ptr, %"class.std::__shared_count" }
%"class.std::__shared_count" = type { ptr }

; Function Attrs: mustprogress nounwind optsize uwtable
define internal void @_ZNSt12__shared_ptrIZL38nanobind_init_test_stl_bind_vector_extRN8nanobind7module_EE2ElLN9__gnu_cxx12_Lock_policyE2EED2Ev(ptr noundef nonnull align 8 dereferenceable(16) %0) unnamed_addr #8 align 2 {
  %2 = alloca ptr, align 8
  store ptr %0, ptr %2, align 8, !tbaa !1070
  %3 = load ptr, ptr %2, align 8
  %4 = getelementptr inbounds nuw %"class.std::__shared_ptr", ptr %3, i32 0, i32 1
  call void @_ZNSt14__shared_countILN9__gnu_cxx12_Lock_policyE2EED2Ev(ptr noundef nonnull align 8 dereferenceable(8) %4) #22
  ret void
}

; Function Attrs: mustprogress nounwind optsize uwtable
define internal void @_ZNSt15__new_allocatorISt10shared_ptrIZL38nanobind_init_test_stl_bind_vector_extRN8nanobind7module_EE2ElEE10deallocateEPS5_m(ptr noundef nonnull align 1 dereferenceable(1) %0, ptr noundef %1, i64 noundef %2) #8 align 2 {
  %4 = alloca ptr, align 8
  %5 = alloca ptr, align 8
  %6 = alloca i64, align 8
  store ptr %0, ptr %4, align 8, !tbaa !1056
  store ptr %1, ptr %5, align 8, !tbaa !1058
  store i64 %2, ptr %6, align 8, !tbaa !104
  %7 = load ptr, ptr %5, align 8, !tbaa !1058
  %8 = load i64, ptr %6, align 8, !tbaa !104
  %9 = mul i64 %8, 16
  call void @_ZdlPvm(ptr noundef %7, i64 noundef %9) #26
  ret void
}

; Function Attrs: inlinehint mustprogress nounwind optsize uwtable
define internal void @_ZSt8_DestroyISt10shared_ptrIZL38nanobind_init_test_stl_bind_vector_extRN8nanobind7module_EE2ElEEvPT_(ptr noundef %0) #11 {
  %2 = alloca ptr, align 8
  store ptr %0, ptr %2, align 8, !tbaa !1058
  %3 = load ptr, ptr %2, align 8, !tbaa !1058
  call void @_ZNSt12__shared_ptrIZL38nanobind_init_test_stl_bind_vector_extRN8nanobind7module_EE2ElLN9__gnu_cxx12_Lock_policyE2EED2Ev(ptr noundef nonnull align 8 dereferenceable(16) %3) #22
  ret void
}

; Function Attrs: mustprogress optsize uwtable
define internal void @_ZNSt16allocator_traitsISaISt10shared_ptrIZL38nanobind_init_test_stl_bind_vector_extRN8nanobind7module_EE2ElEEE10deallocateERS6_PS5_m(ptr noundef nonnull align 1 dereferenceable(1) %0, ptr noundef %1, i64 noundef %2) #0 align 2 {
  %4 = alloca ptr, align 8
  %5 = alloca ptr, align 8
  %6 = alloca i64, align 8
  store ptr %0, ptr %4, align 8, !tbaa !1052
  store ptr %1, ptr %5, align 8, !tbaa !1058
  store i64 %2, ptr %6, align 8, !tbaa !104
  %7 = load ptr, ptr %4, align 8, !tbaa !1052
  %8 = load ptr, ptr %5, align 8, !tbaa !1058
  %9 = load i64, ptr %6, align 8, !tbaa !104
  call void @_ZNSt15__new_allocatorISt10shared_ptrIZL38nanobind_init_test_stl_bind_vector_extRN8nanobind7module_EE2ElEE10deallocateEPS5_m(ptr noundef nonnull align 1 dereferenceable(1) %7, ptr noundef %8, i64 noundef %9) #20
  ret void
}

; Function Attrs: mustprogress optsize uwtable
define internal void @_ZNSt12_Destroy_auxILb0EE9__destroyIPSt10shared_ptrIZL38nanobind_init_test_stl_bind_vector_extRN8nanobind7module_EE2ElEEEvT_S9_(ptr noundef %0, ptr noundef %1) #0 align 2 {
  %3 = alloca ptr, align 8
  %4 = alloca ptr, align 8
  store ptr %0, ptr %3, align 8, !tbaa !1058
  store ptr %1, ptr %4, align 8, !tbaa !1058
  br label %5

5:                                                ; preds = %11, %2
  %6 = load ptr, ptr %3, align 8, !tbaa !1058
  %7 = load ptr, ptr %4, align 8, !tbaa !1058
  %8 = icmp ne ptr %6, %7
  br i1 %8, label %9, label %14

9:                                                ; preds = %5
  %10 = load ptr, ptr %3, align 8, !tbaa !1058
  call void @_ZSt8_DestroyISt10shared_ptrIZL38nanobind_init_test_stl_bind_vector_extRN8nanobind7module_EE2ElEEvPT_(ptr noundef %10) #20
  br label %11

11:                                               ; preds = %9
  %12 = load ptr, ptr %3, align 8, !tbaa !1058
  %13 = getelementptr inbounds nuw %"class.std::shared_ptr", ptr %12, i32 1
  store ptr %13, ptr %3, align 8, !tbaa !1058
  br label %5, !llvm.loop !1080

14:                                               ; preds = %5
  ret void
}

; Function Attrs: mustprogress nounwind optsize uwtable
define internal void @_ZNSt15__new_allocatorISt10shared_ptrIZL38nanobind_init_test_stl_bind_vector_extRN8nanobind7module_EE2ElEED2Ev(ptr noundef nonnull align 1 dereferenceable(1) %0) unnamed_addr #8 align 2 {
  %2 = alloca ptr, align 8
  store ptr %0, ptr %2, align 8, !tbaa !1056
  ret void
}

; Function Attrs: mustprogress optsize uwtable
define internal void @_ZNSt12_Vector_baseISt10shared_ptrIZL38nanobind_init_test_stl_bind_vector_extRN8nanobind7module_EE2ElESaIS5_EE13_M_deallocateEPS5_m(ptr noundef nonnull align 8 dereferenceable(24) %0, ptr noundef %1, i64 noundef %2) #0 align 2 {
  %4 = alloca ptr, align 8
  %5 = alloca ptr, align 8
  %6 = alloca i64, align 8
  store ptr %0, ptr %4, align 8, !tbaa !1054
  store ptr %1, ptr %5, align 8, !tbaa !1058
  store i64 %2, ptr %6, align 8, !tbaa !104
  %7 = load ptr, ptr %4, align 8
  %8 = load ptr, ptr %5, align 8, !tbaa !1058
  %9 = icmp ne ptr %8, null
  br i1 %9, label %10, label %14

10:                                               ; preds = %3
  %11 = getelementptr inbounds nuw %"struct.std::_Vector_base.759", ptr %7, i32 0, i32 0
  %12 = load ptr, ptr %5, align 8, !tbaa !1058
  %13 = load i64, ptr %6, align 8, !tbaa !104
  call void @_ZNSt16allocator_traitsISaISt10shared_ptrIZL38nanobind_init_test_stl_bind_vector_extRN8nanobind7module_EE2ElEEE10deallocateERS6_PS5_m(ptr noundef nonnull align 1 dereferenceable(1) %11, ptr noundef %12, i64 noundef %13) #20
  br label %14

14:                                               ; preds = %10, %3
  ret void
}

; Function Attrs: inlinehint mustprogress optsize uwtable
define internal void @_ZSt8_DestroyIPSt10shared_ptrIZL38nanobind_init_test_stl_bind_vector_extRN8nanobind7module_EE2ElEEvT_S7_(ptr noundef %0, ptr noundef %1) #9 {
  %3 = alloca ptr, align 8
  %4 = alloca ptr, align 8
  store ptr %0, ptr %3, align 8, !tbaa !1058
  store ptr %1, ptr %4, align 8, !tbaa !1058
  %5 = load ptr, ptr %3, align 8, !tbaa !1058
  %6 = load ptr, ptr %4, align 8, !tbaa !1058
  call void @_ZNSt12_Destroy_auxILb0EE9__destroyIPSt10shared_ptrIZL38nanobind_init_test_stl_bind_vector_extRN8nanobind7module_EE2ElEEEvT_S9_(ptr noundef %5, ptr noundef %6) #20
  ret void
}

; Function Attrs: noinline noreturn nounwind optsize uwtable
define linkonce_odr hidden void @__clang_call_terminate(ptr noundef %0) #7 comdat {
  %2 = call ptr @__cxa_begin_catch(ptr %0) #21
  call void @_ZSt9terminatev() #23
  unreachable
}

; Function Attrs: mustprogress nounwind optsize uwtable
define internal void @_ZNSt12_Vector_baseISt10shared_ptrIZL38nanobind_init_test_stl_bind_vector_extRN8nanobind7module_EE2ElESaIS5_EED2Ev(ptr noundef nonnull align 8 dereferenceable(24) %0) unnamed_addr #8 align 2 personality ptr @__gxx_personality_v0 {
  %2 = alloca ptr, align 8
  store ptr %0, ptr %2, align 8, !tbaa !1054
  %3 = load ptr, ptr %2, align 8
  %4 = getelementptr inbounds nuw %"struct.std::_Vector_base.759", ptr %3, i32 0, i32 0
  %5 = getelementptr inbounds nuw %"struct.std::_Vector_base<std::shared_ptr<El>, std::allocator<std::shared_ptr<El>>>::_Vector_impl_data", ptr %4, i32 0, i32 0
  %6 = load ptr, ptr %5, align 8, !tbaa !1048
  %7 = getelementptr inbounds nuw %"struct.std::_Vector_base.759", ptr %3, i32 0, i32 0
  %8 = getelementptr inbounds nuw %"struct.std::_Vector_base<std::shared_ptr<El>, std::allocator<std::shared_ptr<El>>>::_Vector_impl_data", ptr %7, i32 0, i32 2
  %9 = load ptr, ptr %8, align 8, !tbaa !1060
  %10 = getelementptr inbounds nuw %"struct.std::_Vector_base.759", ptr %3, i32 0, i32 0
  %11 = getelementptr inbounds nuw %"struct.std::_Vector_base<std::shared_ptr<El>, std::allocator<std::shared_ptr<El>>>::_Vector_impl_data", ptr %10, i32 0, i32 0
  %12 = load ptr, ptr %11, align 8, !tbaa !1048
  %13 = ptrtoint ptr %9 to i64
  %14 = ptrtoint ptr %12 to i64
  %15 = sub i64 %13, %14
  %16 = sdiv exact i64 %15, 16
  invoke void @_ZNSt12_Vector_baseISt10shared_ptrIZL38nanobind_init_test_stl_bind_vector_extRN8nanobind7module_EE2ElESaIS5_EE13_M_deallocateEPS5_m(ptr noundef nonnull align 8 dereferenceable(24) %3, ptr noundef %6, i64 noundef %16) #20
          to label %17 unwind label %19

17:                                               ; preds = %1
  %18 = getelementptr inbounds nuw %"struct.std::_Vector_base.759", ptr %3, i32 0, i32 0
  call void @_ZNSt15__new_allocatorISt10shared_ptrIZL38nanobind_init_test_stl_bind_vector_extRN8nanobind7module_EE2ElEED2Ev(ptr noundef nonnull align 8 dereferenceable(24) %18) #22
  ret void

19:                                               ; preds = %1
  %20 = landingpad { ptr, i32 }
          catch ptr null
  %21 = extractvalue { ptr, i32 } %20, 0
  call void @__clang_call_terminate(ptr %21) #23
  unreachable
}

; Function Attrs: inlinehint mustprogress optsize uwtable
define internal void @_ZSt8_DestroyIPSt10shared_ptrIZL38nanobind_init_test_stl_bind_vector_extRN8nanobind7module_EE2ElES5_EvT_S7_RSaIT0_E(ptr noundef %0, ptr noundef %1, ptr noundef nonnull align 1 dereferenceable(1) %2) #9 {
  %4 = alloca ptr, align 8
  %5 = alloca ptr, align 8
  %6 = alloca ptr, align 8
  store ptr %0, ptr %4, align 8, !tbaa !1058
  store ptr %1, ptr %5, align 8, !tbaa !1058
  store ptr %2, ptr %6, align 8, !tbaa !1052
  %7 = load ptr, ptr %4, align 8, !tbaa !1058
  %8 = load ptr, ptr %5, align 8, !tbaa !1058
  call void @_ZSt8_DestroyIPSt10shared_ptrIZL38nanobind_init_test_stl_bind_vector_extRN8nanobind7module_EE2ElEEvT_S7_(ptr noundef %7, ptr noundef %8) #20
  ret void
}

; Function Attrs: mustprogress nounwind optsize uwtable
define internal noundef nonnull align 1 dereferenceable(1) ptr @_ZNSt12_Vector_baseISt10shared_ptrIZL38nanobind_init_test_stl_bind_vector_extRN8nanobind7module_EE2ElESaIS5_EE19_M_get_Tp_allocatorEv(ptr noundef nonnull align 8 dereferenceable(24) %0) #8 align 2 {
  %2 = alloca ptr, align 8
  store ptr %0, ptr %2, align 8, !tbaa !1054
  %3 = load ptr, ptr %2, align 8
  %4 = getelementptr inbounds nuw %"struct.std::_Vector_base.759", ptr %3, i32 0, i32 0
  ret ptr %4
}

; Function Attrs: mustprogress nounwind optsize uwtable
define internal void @_ZNSt6vectorISt10shared_ptrIZL38nanobind_init_test_stl_bind_vector_extRN8nanobind7module_EE2ElESaIS5_EED2Ev(ptr noundef nonnull align 8 dereferenceable(24) %0) unnamed_addr #8 align 2 personality ptr @__gxx_personality_v0 {
  %2 = alloca ptr, align 8
  store ptr %0, ptr %2, align 8, !tbaa !1046
  %3 = load ptr, ptr %2, align 8
  %4 = getelementptr inbounds nuw %"struct.std::_Vector_base.759", ptr %3, i32 0, i32 0
  %5 = getelementptr inbounds nuw %"struct.std::_Vector_base<std::shared_ptr<El>, std::allocator<std::shared_ptr<El>>>::_Vector_impl_data", ptr %4, i32 0, i32 0
  %6 = load ptr, ptr %5, align 8, !tbaa !1048
  %7 = getelementptr inbounds nuw %"struct.std::_Vector_base.759", ptr %3, i32 0, i32 0
  %8 = getelementptr inbounds nuw %"struct.std::_Vector_base<std::shared_ptr<El>, std::allocator<std::shared_ptr<El>>>::_Vector_impl_data", ptr %7, i32 0, i32 1
  %9 = load ptr, ptr %8, align 8, !tbaa !1051
  %10 = call noundef nonnull align 1 dereferenceable(1) ptr @_ZNSt12_Vector_baseISt10shared_ptrIZL38nanobind_init_test_stl_bind_vector_extRN8nanobind7module_EE2ElESaIS5_EE19_M_get_Tp_allocatorEv(ptr noundef nonnull align 8 dereferenceable(24) %3) #22
  invoke void @_ZSt8_DestroyIPSt10shared_ptrIZL38nanobind_init_test_stl_bind_vector_extRN8nanobind7module_EE2ElES5_EvT_S7_RSaIT0_E(ptr noundef %6, ptr noundef %9, ptr noundef nonnull align 1 dereferenceable(1) %10) #20
          to label %11 unwind label %12

11:                                               ; preds = %1
  call void @_ZNSt12_Vector_baseISt10shared_ptrIZL38nanobind_init_test_stl_bind_vector_extRN8nanobind7module_EE2ElESaIS5_EED2Ev(ptr noundef nonnull align 8 dereferenceable(24) %3) #22
  ret void

12:                                               ; preds = %1
  %13 = landingpad { ptr, i32 }
          catch ptr null
  %14 = extractvalue { ptr, i32 } %13, 0
  call void @__clang_call_terminate(ptr %14) #23
  unreachable
}

; Function Attrs: mustprogress nounwind optsize uwtable
define internal void @_ZN8nanobind6detail13wrap_destructISt6vectorISt10shared_ptrIZL38nanobind_init_test_stl_bind_vector_extRNS_7module_EE2ElESaIS7_EEEEvPv(ptr noundef %0) #8 {
  %2 = alloca ptr, align 8
  store ptr %0, ptr %2, align 8, !tbaa !55
  %3 = load ptr, ptr %2, align 8, !tbaa !55
  call void @_ZNSt6vectorISt10shared_ptrIZL38nanobind_init_test_stl_bind_vector_extRN8nanobind7module_EE2ElESaIS5_EED2Ev(ptr noundef nonnull align 8 dereferenceable(24) %3) #22
  ret void
}